; Function Attrs: mustprogress nounwind uwtable
define dso_local void @_ZN5clang14TextNodeDumper25VisitExtVectorElementExprEPKNS_20ExtVectorElementExprE(ptr nocapture noundef nonnull readonly align 8 dereferenceable(1168) %0, ptr nocapture noundef readonly %1) local_unnamed_addr #0 align 2 {
  %3 = getelementptr inbounds nuw i8, ptr %0, i64 1096
  %4 = load ptr, ptr %3, align 8
  %5 = getelementptr inbounds nuw i8, ptr %4, i64 24
  %6 = load ptr, ptr %5, align 8
  %7 = getelementptr inbounds nuw i8, ptr %4, i64 32
  %8 = load ptr, ptr %7, align 8
  %9 = icmp eq ptr %6, %8
  br i1 %9, label %10, label %12

10:                                               ; preds = %2
  %11 = tail call noundef nonnull align 8 dereferenceable(48) ptr @_ZN4llvm11raw_ostream5writeEPKcm(ptr noundef nonnull align 8 dereferenceable(48) %4, ptr noundef nonnull @.str.433, i64 noundef 1) #18
  %.phi.trans.insert = getelementptr inbounds nuw i8, ptr %11, i64 32
  %.pre = load ptr, ptr %.phi.trans.insert, align 8
  br label %_ZN4llvm11raw_ostreamlsEPKc.exit

12:                                               ; preds = %2
  store i8 32, ptr %8, align 1
  %13 = load ptr, ptr %7, align 8
  %14 = getelementptr inbounds i8, ptr %13, i64 1
  store ptr %14, ptr %7, align 8
  br label %_ZN4llvm11raw_ostreamlsEPKc.exit

_ZN4llvm11raw_ostreamlsEPKc.exit:                 ; preds = %10, %12
  %15 = phi ptr [ %.pre, %10 ], [ %14, %12 ]
  %.0.i.i = phi ptr [ %11, %10 ], [ %4, %12 ]
  %16 = getelementptr inbounds nuw i8, ptr %1, i64 24
  %17 = load ptr, ptr %16, align 8
  %18 = getelementptr inbounds nuw i8, ptr %17, i64 16
  %19 = load ptr, ptr %18, align 8
  %20 = getelementptr inbounds i8, ptr %19, i64 16
  %21 = tail call noundef i64 @strlen(ptr noundef nonnull dereferenceable(1) %20) #18
  %22 = getelementptr inbounds nuw i8, ptr %.0.i.i, i64 24
  %23 = load ptr, ptr %22, align 8
  %24 = getelementptr inbounds nuw i8, ptr %.0.i.i, i64 32
  %25 = ptrtoint ptr %23 to i64
  %26 = ptrtoint ptr %15 to i64
  %27 = sub i64 %25, %26
  %28 = icmp ugt i64 %21, %27
  br i1 %28, label %29, label %31

29:                                               ; preds = %_ZN4llvm11raw_ostreamlsEPKc.exit
  %30 = tail call noundef nonnull align 8 dereferenceable(48) ptr @_ZN4llvm11raw_ostream5writeEPKcm(ptr noundef nonnull align 8 dereferenceable(48) %.0.i.i, ptr noundef nonnull %20, i64 noundef %21) #18
  br label %_ZN4llvm11raw_ostreamlsEPKc.exit4

31:                                               ; preds = %_ZN4llvm11raw_ostreamlsEPKc.exit
  %.not.i2.i2 = icmp eq i64 %21, 0
  br i1 %.not.i2.i2, label %_ZN4llvm11raw_ostreamlsEPKc.exit4, label %32

32:                                               ; preds = %31
  tail call void @llvm.memcpy.p0.p0.i64(ptr align 1 %15, ptr nonnull align 1 %20, i64 %21, i1 false)
  %33 = load ptr, ptr %24, align 8
  %34 = getelementptr inbounds i8, ptr %33, i64 %21
  store ptr %34, ptr %24, align 8
  br label %_ZN4llvm11raw_ostreamlsEPKc.exit4

_ZN4llvm11raw_ostreamlsEPKc.exit4:                ; preds = %29, %31, %32
  ret void
}